target datalayout = "e-m:e-p270:32:32-p271:32:32-p272:64:64-i64:64-i128:128-f80:128-n8:16:32:64-S128"
target triple = "x86_64-pc-linux-gnu"

%struct._object = type { %union.anon, ptr }
%union.anon = type { i64 }
%struct.PyMutex = type { i8 }
%struct.Py_buffer = type { ptr, ptr, i64, i64, i32, i32, ptr, ptr, ptr, ptr, ptr }
%struct._typeobject = type { %struct.PyVarObject, ptr, i64, i64, ptr, i64, ptr, ptr, ptr, ptr, ptr, ptr, ptr, ptr, ptr, ptr, ptr, ptr, ptr, i64, ptr, ptr, ptr, ptr, i64, ptr, ptr, ptr, ptr, ptr, ptr, ptr, ptr, ptr, i64, ptr, ptr, ptr, ptr, ptr, ptr, ptr, ptr, ptr, ptr, ptr, i32, ptr, ptr, i8, i16 }
%struct.PyVarObject = type { %struct._object, i64 }
%struct.EVPobject = type { %struct._object, ptr, i8, %struct.PyMutex }

@_Py_NoneStruct = external global %struct._object, align 8
@PyExc_TypeError = external global ptr, align 8
@.str.45 = private unnamed_addr constant [39 x i8] c"Strings must be encoded before hashing\00", align 1
@.str.46 = private unnamed_addr constant [42 x i8] c"object supporting the buffer API required\00", align 1
@PyExc_BufferError = external global ptr, align 8
@.str.47 = private unnamed_addr constant [32 x i8] c"Buffer must be single dimension\00", align 1
@PyExc_ValueError = external global ptr, align 8

; Function Attrs: inlinehint nounwind uwtable
define internal i32 @_Py_atomic_compare_exchange_uint8(ptr noundef %0, ptr noundef %1, i8 noundef zeroext %2) #4 {
  %4 = alloca ptr, align 8
  %5 = alloca ptr, align 8
  %6 = alloca i8, align 1
  %7 = alloca i8, align 1
  %8 = alloca i8, align 1
  store ptr %0, ptr %4, align 8, !tbaa !21
  store ptr %1, ptr %5, align 8, !tbaa !21
  store i8 %2, ptr %6, align 1, !tbaa !28
  %9 = load ptr, ptr %4, align 8, !tbaa !21
  %10 = load ptr, ptr %5, align 8, !tbaa !21
  %11 = load i8, ptr %6, align 1, !tbaa !28
  store i8 %11, ptr %7, align 1, !tbaa !28
  %12 = load i8, ptr %10, align 1
  %13 = load i8, ptr %7, align 1
  %14 = cmpxchg ptr %9, i8 %12, i8 %13 seq_cst seq_cst, align 1
  %15 = extractvalue { i8, i1 } %14, 0
  %16 = extractvalue { i8, i1 } %14, 1
  br i1 %16, label %18, label %17

17:                                               ; preds = %3
  store i8 %15, ptr %10, align 1
  br label %18

18:                                               ; preds = %17, %3
  %19 = zext i1 %16 to i8
  store i8 %19, ptr %8, align 1, !tbaa !53
  %20 = load i8, ptr %8, align 1, !tbaa !53, !range !38, !noundef !39
  %21 = trunc i8 %20 to i1
  %22 = zext i1 %21 to i32
  ret i32 %22
}

; Function Attrs: inlinehint nounwind uwtable
define internal void @_PyMutex_Unlock(ptr noundef %0) #4 {
  %2 = alloca ptr, align 8
  %3 = alloca i8, align 1
  store ptr %0, ptr %2, align 8, !tbaa !51
  call void @llvm.lifetime.start.p0(i64 1, ptr %3) #9
  store i8 1, ptr %3, align 1, !tbaa !28
  %4 = load ptr, ptr %2, align 8, !tbaa !51
  %5 = getelementptr inbounds nuw %struct.PyMutex, ptr %4, i32 0, i32 0
  %6 = call i32 @_Py_atomic_compare_exchange_uint8(ptr noundef %5, ptr noundef %3, i8 noundef zeroext 0)
  %7 = icmp ne i32 %6, 0
  br i1 %7, label %10, label %8

8:                                                ; preds = %1
  %9 = load ptr, ptr %2, align 8, !tbaa !51
  call void @PyMutex_Unlock(ptr noundef %9)
  br label %10

10:                                               ; preds = %8, %1
  call void @llvm.lifetime.end.p0(i64 1, ptr %3) #9
  ret void
}

; Function Attrs: nounwind uwtable
define internal i32 @EVP_hash(ptr noundef %0, ptr noundef %1, i64 noundef %2) #0 {
  %4 = alloca i32, align 4
  %5 = alloca ptr, align 8
  %6 = alloca ptr, align 8
  %7 = alloca i64, align 8
  %8 = alloca i32, align 4
  %9 = alloca ptr, align 8
  %10 = alloca i32, align 4
  store ptr %0, ptr %5, align 8, !tbaa !3
  store ptr %1, ptr %6, align 8, !tbaa !3
  store i64 %2, ptr %7, align 8, !tbaa !32
  call void @llvm.lifetime.start.p0(i64 4, ptr %8) #9
  call void @llvm.lifetime.start.p0(i64 8, ptr %9) #9
  %11 = load ptr, ptr %6, align 8, !tbaa !3
  store ptr %11, ptr %9, align 8, !tbaa !21
  br label %12

12:                                               ; preds = %34, %3
  %13 = load i64, ptr %7, align 8, !tbaa !32
  %14 = icmp slt i64 0, %13
  br i1 %14, label %15, label %43

15:                                               ; preds = %12
  %16 = load i64, ptr %7, align 8, !tbaa !32
  %17 = icmp sgt i64 %16, 2147483647
  br i1 %17, label %18, label %19

18:                                               ; preds = %15
  store i32 2147483647, ptr %8, align 4, !tbaa !19
  br label %22

19:                                               ; preds = %15
  %20 = load i64, ptr %7, align 8, !tbaa !32
  %21 = trunc i64 %20 to i32
  store i32 %21, ptr %8, align 4, !tbaa !19
  br label %22

22:                                               ; preds = %19, %18
  %23 = load ptr, ptr %5, align 8, !tbaa !3
  %24 = getelementptr inbounds nuw %struct.EVPobject, ptr %23, i32 0, i32 1
  %25 = load ptr, ptr %24, align 8, !tbaa !69
  %26 = load ptr, ptr %9, align 8, !tbaa !21
  %27 = load i32, ptr %8, align 4, !tbaa !19
  %28 = zext i32 %27 to i64
  %29 = call i32 @EVP_DigestUpdate(ptr noundef %25, ptr noundef %26, i64 noundef %28)
  %30 = icmp ne i32 %29, 0
  br i1 %30, label %34, label %31

31:                                               ; preds = %22
  %32 = load ptr, ptr @PyExc_ValueError, align 8, !tbaa !14
  %33 = call ptr (ptr, ptr, ...) @_setException(ptr noundef %32, ptr noundef null)
  store i32 -1, ptr %4, align 4
  store i32 1, ptr %10, align 4
  br label %44

34:                                               ; preds = %22
  %35 = load i32, ptr %8, align 4, !tbaa !19
  %36 = zext i32 %35 to i64
  %37 = load i64, ptr %7, align 8, !tbaa !32
  %38 = sub i64 %37, %36
  store i64 %38, ptr %7, align 8, !tbaa !32
  %39 = load i32, ptr %8, align 4, !tbaa !19
  %40 = load ptr, ptr %9, align 8, !tbaa !21
  %41 = zext i32 %39 to i64
  %42 = getelementptr i8, ptr %40, i64 %41
  store ptr %42, ptr %9, align 8, !tbaa !21
  br label %12, !llvm.loop !76

43:                                               ; preds = %12
  store i32 0, ptr %4, align 4
  store i32 1, ptr %10, align 4
  br label %44

44:                                               ; preds = %43, %31
  call void @llvm.lifetime.end.p0(i64 8, ptr %9) #9
  call void @llvm.lifetime.end.p0(i64 4, ptr %8) #9
  %45 = load i32, ptr %4, align 4
  ret i32 %45
}

; Function Attrs: inlinehint nounwind uwtable
define internal void @_PyMutex_Lock(ptr noundef %0) #4 {
  %2 = alloca ptr, align 8
  %3 = alloca i8, align 1
  store ptr %0, ptr %2, align 8, !tbaa !51
  call void @llvm.lifetime.start.p0(i64 1, ptr %3) #9
  store i8 0, ptr %3, align 1, !tbaa !28
  %4 = load ptr, ptr %2, align 8, !tbaa !51
  %5 = getelementptr inbounds nuw %struct.PyMutex, ptr %4, i32 0, i32 0
  %6 = call i32 @_Py_atomic_compare_exchange_uint8(ptr noundef %5, ptr noundef %3, i8 noundef zeroext 1)
  %7 = icmp ne i32 %6, 0
  br i1 %7, label %10, label %8

8:                                                ; preds = %1
  %9 = load ptr, ptr %2, align 8, !tbaa !51
  call void @PyMutex_Lock(ptr noundef %9)
  br label %10

10:                                               ; preds = %8, %1
  call void @llvm.lifetime.end.p0(i64 1, ptr %3) #9
  ret void
}

; Function Attrs: inlinehint nounwind uwtable
define internal i32 @PyType_HasFeature(ptr noundef %0, i64 noundef %1) #4 {
  %3 = alloca ptr, align 8
  %4 = alloca i64, align 8
  %5 = alloca i64, align 8
  store ptr %0, ptr %3, align 8, !tbaa !16
  store i64 %1, ptr %4, align 8, !tbaa !32
  call void @llvm.lifetime.start.p0(i64 8, ptr %5) #9
  %6 = load ptr, ptr %3, align 8, !tbaa !16
  %7 = getelementptr inbounds nuw %struct._typeobject, ptr %6, i32 0, i32 19
  %8 = load i64, ptr %7, align 8, !tbaa !44
  store i64 %8, ptr %5, align 8, !tbaa !32
  %9 = load i64, ptr %5, align 8, !tbaa !32
  %10 = load i64, ptr %4, align 8, !tbaa !32
  %11 = and i64 %9, %10
  %12 = icmp ne i64 %11, 0
  %13 = zext i1 %12 to i32
  call void @llvm.lifetime.end.p0(i64 8, ptr %5) #9
  ret i32 %13
}

; Function Attrs: inlinehint nounwind uwtable
define internal ptr @_Py_TYPE(ptr noundef %0) #4 {
  %2 = alloca ptr, align 8
  store ptr %0, ptr %2, align 8, !tbaa !14
  %3 = load ptr, ptr %2, align 8, !tbaa !14
  %4 = getelementptr inbounds nuw %struct._object, ptr %3, i32 0, i32 1
  %5 = load ptr, ptr %4, align 8, !tbaa !29
  ret ptr %5
}

; Function Attrs: nounwind uwtable
define internal ptr @EVP_update(ptr noundef %0, ptr noundef %1) #0 {
  %3 = alloca ptr, align 8
  %4 = alloca ptr, align 8
  %5 = alloca ptr, align 8
  %6 = alloca i32, align 4
  %7 = alloca %struct.Py_buffer, align 8
  %8 = alloca i32, align 4
  %9 = alloca ptr, align 8
  store ptr %0, ptr %4, align 8, !tbaa !3
  store ptr %1, ptr %5, align 8, !tbaa !14
  call void @llvm.lifetime.start.p0(i64 4, ptr %6) #9
  call void @llvm.lifetime.start.p0(i64 80, ptr %7) #9
  br label %10

10:                                               ; preds = %2
  %11 = load ptr, ptr %5, align 8, !tbaa !14
  %12 = call ptr @_Py_TYPE(ptr noundef %11)
  %13 = call i32 @PyType_HasFeature(ptr noundef %12, i64 noundef 268435456)
  %14 = icmp ne i32 %13, 0
  br i1 %14, label %15, label %17

15:                                               ; preds = %10
  %16 = load ptr, ptr @PyExc_TypeError, align 8, !tbaa !14
  call void @PyErr_SetString(ptr noundef %16, ptr noundef @.str.45)
  store ptr null, ptr %3, align 8
  store i32 1, ptr %8, align 4
  br label %78

17:                                               ; preds = %10
  %18 = load ptr, ptr %5, align 8, !tbaa !14
  %19 = call i32 @PyObject_CheckBuffer(ptr noundef %18)
  %20 = icmp ne i32 %19, 0
  br i1 %20, label %23, label %21

21:                                               ; preds = %17
  %22 = load ptr, ptr @PyExc_TypeError, align 8, !tbaa !14
  call void @PyErr_SetString(ptr noundef %22, ptr noundef @.str.46)
  store ptr null, ptr %3, align 8
  store i32 1, ptr %8, align 4
  br label %78

23:                                               ; preds = %17
  %24 = load ptr, ptr %5, align 8, !tbaa !14
  %25 = call i32 @PyObject_GetBuffer(ptr noundef %24, ptr noundef %7, i32 noundef 0)
  %26 = icmp eq i32 %25, -1
  br i1 %26, label %27, label %28

27:                                               ; preds = %23
  store ptr null, ptr %3, align 8
  store i32 1, ptr %8, align 4
  br label %78

28:                                               ; preds = %23
  %29 = getelementptr inbounds nuw %struct.Py_buffer, ptr %7, i32 0, i32 5
  %30 = load i32, ptr %29, align 4, !tbaa !34
  %31 = icmp sgt i32 %30, 1
  br i1 %31, label %32, label %34

32:                                               ; preds = %28
  %33 = load ptr, ptr @PyExc_BufferError, align 8, !tbaa !14
  call void @PyErr_SetString(ptr noundef %33, ptr noundef @.str.47)
  call void @PyBuffer_Release(ptr noundef %7)
  store ptr null, ptr %3, align 8
  store i32 1, ptr %8, align 4
  br label %78

34:                                               ; preds = %28
  br label %35

35:                                               ; preds = %34
  br label %36

36:                                               ; preds = %35
  %37 = load ptr, ptr %4, align 8, !tbaa !3
  %38 = getelementptr inbounds nuw %struct.EVPobject, ptr %37, i32 0, i32 2
  %39 = load i8, ptr %38, align 8, !tbaa !75, !range !38, !noundef !39
  %40 = trunc i8 %39 to i1
  br i1 %40, label %48, label %41

41:                                               ; preds = %36
  %42 = getelementptr inbounds nuw %struct.Py_buffer, ptr %7, i32 0, i32 2
  %43 = load i64, ptr %42, align 8, !tbaa !40
  %44 = icmp sge i64 %43, 2048
  br i1 %44, label %45, label %48

45:                                               ; preds = %41
  %46 = load ptr, ptr %4, align 8, !tbaa !3
  %47 = getelementptr inbounds nuw %struct.EVPobject, ptr %46, i32 0, i32 2
  store i8 1, ptr %47, align 8, !tbaa !75
  br label %48

48:                                               ; preds = %45, %41, %36
  %49 = load ptr, ptr %4, align 8, !tbaa !3
  %50 = getelementptr inbounds nuw %struct.EVPobject, ptr %49, i32 0, i32 2
  %51 = load i8, ptr %50, align 8, !tbaa !75, !range !38, !noundef !39
  %52 = trunc i8 %51 to i1
  br i1 %52, label %53, label %66

53:                                               ; preds = %48
  call void @llvm.lifetime.start.p0(i64 8, ptr %9) #9
  %54 = call ptr @PyEval_SaveThread()
  store ptr %54, ptr %9, align 8, !tbaa !41
  %55 = load ptr, ptr %4, align 8, !tbaa !3
  %56 = getelementptr inbounds nuw %struct.EVPobject, ptr %55, i32 0, i32 3
  call void @_PyMutex_Lock(ptr noundef %56)
  %57 = load ptr, ptr %4, align 8, !tbaa !3
  %58 = getelementptr inbounds nuw %struct.Py_buffer, ptr %7, i32 0, i32 0
  %59 = load ptr, ptr %58, align 8, !tbaa !43
  %60 = getelementptr inbounds nuw %struct.Py_buffer, ptr %7, i32 0, i32 2
  %61 = load i64, ptr %60, align 8, !tbaa !40
  %62 = call i32 @EVP_hash(ptr noundef %57, ptr noundef %59, i64 noundef %61)
  store i32 %62, ptr %6, align 4, !tbaa !19
  %63 = load ptr, ptr %4, align 8, !tbaa !3
  %64 = getelementptr inbounds nuw %struct.EVPobject, ptr %63, i32 0, i32 3
  call void @_PyMutex_Unlock(ptr noundef %64)
  %65 = load ptr, ptr %9, align 8, !tbaa !41
  call void @PyEval_RestoreThread(ptr noundef %65)
  call void @llvm.lifetime.end.p0(i64 8, ptr %9) #9
  br label %73

66:                                               ; preds = %48
  %67 = load ptr, ptr %4, align 8, !tbaa !3
  %68 = getelementptr inbounds nuw %struct.Py_buffer, ptr %7, i32 0, i32 0
  %69 = load ptr, ptr %68, align 8, !tbaa !43
  %70 = getelementptr inbounds nuw %struct.Py_buffer, ptr %7, i32 0, i32 2
  %71 = load i64, ptr %70, align 8, !tbaa !40
  %72 = call i32 @EVP_hash(ptr noundef %67, ptr noundef %69, i64 noundef %71)
  store i32 %72, ptr %6, align 4, !tbaa !19
  br label %73

73:                                               ; preds = %66, %53
  call void @PyBuffer_Release(ptr noundef %7)
  %74 = load i32, ptr %6, align 4, !tbaa !19
  %75 = icmp eq i32 %74, -1
  br i1 %75, label %76, label %77

76:                                               ; preds = %73
  store ptr null, ptr %3, align 8
  store i32 1, ptr %8, align 4
  br label %78

77:                                               ; preds = %73
  store ptr @_Py_NoneStruct, ptr %3, align 8
  store i32 1, ptr %8, align 4
  br label %78

78:                                               ; preds = %77, %76, %32, %27, %21, %15
  call void @llvm.lifetime.end.p0(i64 80, ptr %7) #9
  call void @llvm.lifetime.end.p0(i64 4, ptr %6) #9
  %79 = load ptr, ptr %3, align 8
  ret ptr %79
}