; Function Attrs: nounwind uwtable
define internal noundef ptr @EVP_update(ptr noundef %0, ptr noundef %1) #0 {
  %3 = alloca %struct.Py_buffer, align 8
  call void @llvm.lifetime.start.p0(i64 80, ptr nonnull %3) #9
  %4 = getelementptr i8, ptr %1, i64 8
  %.val = load ptr, ptr %4, align 8, !tbaa !22
  %5 = getelementptr i8, ptr %.val, i64 168
  %.val18 = load i64, ptr %5, align 8, !tbaa !28
  %6 = and i64 %.val18, 268435456
  %.not15 = icmp eq i64 %6, 0
  br i1 %.not15, label %9, label %7

7:                                                ; preds = %2
  %8 = load ptr, ptr @PyExc_TypeError, align 8, !tbaa !23
  tail call void @PyErr_SetString(ptr noundef %8, ptr noundef nonnull @.str.45) #9
  br label %69

9:                                                ; preds = %2
  %10 = tail call i32 @PyObject_CheckBuffer(ptr noundef nonnull %1) #9
  %.not16 = icmp eq i32 %10, 0
  br i1 %.not16, label %11, label %13

11:                                               ; preds = %9
  %12 = load ptr, ptr @PyExc_TypeError, align 8, !tbaa !23
  tail call void @PyErr_SetString(ptr noundef %12, ptr noundef nonnull @.str.46) #9
  br label %69

13:                                               ; preds = %9
  %14 = call i32 @PyObject_GetBuffer(ptr noundef nonnull %1, ptr noundef nonnull %3, i32 noundef 0) #9
  %15 = icmp eq i32 %14, -1
  br i1 %15, label %69, label %16

16:                                               ; preds = %13
  %17 = getelementptr inbounds nuw i8, ptr %3, i64 36
  %18 = load i32, ptr %17, align 4, !tbaa !36
  %19 = icmp sgt i32 %18, 1
  br i1 %19, label %20, label %22

20:                                               ; preds = %16
  %21 = load ptr, ptr @PyExc_BufferError, align 8, !tbaa !23
  call void @PyErr_SetString(ptr noundef %21, ptr noundef nonnull @.str.47) #9
  call void @PyBuffer_Release(ptr noundef nonnull %3) #9
  br label %69

22:                                               ; preds = %16
  %23 = getelementptr inbounds nuw i8, ptr %0, i64 24
  %24 = load i8, ptr %23, align 8, !tbaa !59, !range !26, !noundef !27
  %25 = trunc nuw i8 %24 to i1
  %26 = getelementptr inbounds nuw i8, ptr %3, i64 16
  %27 = load i64, ptr %26, align 8
  %28 = icmp slt i64 %27, 2048
  %or.cond.not = select i1 %25, i1 true, i1 %28
  br i1 %or.cond.not, label %29, label %.thread

.thread:                                          ; preds = %22
  store i8 1, ptr %23, align 8, !tbaa !59
  br label %31

29:                                               ; preds = %22
  %30 = trunc nuw i8 %24 to i1
  br i1 %30, label %31, label %55

31:                                               ; preds = %.thread, %29
  %32 = call ptr @PyEval_SaveThread() #9
  %33 = getelementptr inbounds nuw i8, ptr %0, i64 25
  %34 = cmpxchg ptr %33, i8 0, i8 1 seq_cst seq_cst, align 1
  %35 = extractvalue { i8, i1 } %34, 1
  br i1 %35, label %_PyMutex_Lock.exit, label %36

36:                                               ; preds = %31
  call void @PyMutex_Lock(ptr noundef nonnull %33) #9
  br label %_PyMutex_Lock.exit

_PyMutex_Lock.exit:                               ; preds = %31, %36
  %37 = load i64, ptr %26, align 8, !tbaa !40
  %38 = icmp sgt i64 %37, 0
  br i1 %38, label %.lr.ph.i, label %EVP_hash.exit

.lr.ph.i:                                         ; preds = %_PyMutex_Lock.exit
  %39 = load ptr, ptr %3, align 8, !tbaa !39
  %40 = getelementptr inbounds nuw i8, ptr %0, i64 16
  br label %41

41:                                               ; preds = %47, %.lr.ph.i
  %.015.i = phi ptr [ %39, %.lr.ph.i ], [ %49, %47 ]
  %.01214.i = phi i64 [ %37, %.lr.ph.i ], [ %48, %47 ]
  %42 = call i64 @llvm.umin.i64(i64 %.01214.i, i64 2147483647)
  %43 = load ptr, ptr %40, align 8, !tbaa !62
  %44 = call i32 @EVP_DigestUpdate(ptr noundef %43, ptr noundef %.015.i, i64 noundef %42) #9
  %.not.i = icmp eq i32 %44, 0
  br i1 %.not.i, label %45, label %47

45:                                               ; preds = %41
  %46 = load ptr, ptr @PyExc_ValueError, align 8, !tbaa !23
  call void (ptr, ptr, ...) @_setException(ptr noundef %46, ptr noundef null)
  br label %EVP_hash.exit

47:                                               ; preds = %41
  %48 = sub nsw i64 %.01214.i, %42
  %49 = getelementptr i8, ptr %.015.i, i64 %42
  %50 = icmp sgt i64 %48, 0
  br i1 %50, label %41, label %EVP_hash.exit, !llvm.loop !63

EVP_hash.exit:                                    ; preds = %47, %_PyMutex_Lock.exit, %45
  %51 = phi i1 [ true, %45 ], [ false, %_PyMutex_Lock.exit ], [ false, %47 ]
  %52 = cmpxchg ptr %33, i8 1, i8 0 seq_cst seq_cst, align 1
  %53 = extractvalue { i8, i1 } %52, 1
  br i1 %53, label %EVP_hash.exit24, label %54

54:                                               ; preds = %EVP_hash.exit
  call void @PyMutex_Unlock(ptr noundef nonnull %33) #9
  br label %EVP_hash.exit24

55:                                               ; preds = %29
  %56 = icmp sgt i64 %27, 0
  br i1 %56, label %.lr.ph.i20, label %EVP_hash.exit24.thread

.lr.ph.i20:                                       ; preds = %55
  %57 = load ptr, ptr %3, align 8, !tbaa !39
  %58 = getelementptr inbounds nuw i8, ptr %0, i64 16
  br label %59

59:                                               ; preds = %64, %.lr.ph.i20
  %.015.i21 = phi ptr [ %57, %.lr.ph.i20 ], [ %66, %64 ]
  %.01214.i22 = phi i64 [ %27, %.lr.ph.i20 ], [ %65, %64 ]
  %60 = call i64 @llvm.umin.i64(i64 %.01214.i22, i64 2147483647)
  %61 = load ptr, ptr %58, align 8, !tbaa !62
  %62 = call i32 @EVP_DigestUpdate(ptr noundef %61, ptr noundef %.015.i21, i64 noundef %60) #9
  %.not.i23 = icmp eq i32 %62, 0
  br i1 %.not.i23, label %EVP_hash.exit24.thread26, label %64

EVP_hash.exit24.thread26:                         ; preds = %59
  %63 = load ptr, ptr @PyExc_ValueError, align 8, !tbaa !23
  call void (ptr, ptr, ...) @_setException(ptr noundef %63, ptr noundef null)
  call void @PyBuffer_Release(ptr noundef nonnull %3) #9
  br label %68

64:                                               ; preds = %59
  %65 = sub nsw i64 %.01214.i22, %60
  %66 = getelementptr i8, ptr %.015.i21, i64 %60
  %67 = icmp sgt i64 %65, 0
  br i1 %67, label %59, label %EVP_hash.exit24.thread, !llvm.loop !63

EVP_hash.exit24.thread:                           ; preds = %64, %55
  call void @PyBuffer_Release(ptr noundef nonnull %3) #9
  br label %69

EVP_hash.exit24:                                  ; preds = %54, %EVP_hash.exit
  call void @PyEval_RestoreThread(ptr noundef %32) #9
  call void @PyBuffer_Release(ptr noundef nonnull %3) #9
  br i1 %51, label %68, label %69

68:                                               ; preds = %EVP_hash.exit24.thread26, %EVP_hash.exit24
  br label %69

69:                                               ; preds = %68, %EVP_hash.exit24, %EVP_hash.exit24.thread, %13, %20, %11, %7
  %.0 = phi ptr [ null, %7 ], [ null, %20 ], [ null, %11 ], [ null, %13 ], [ null, %68 ], [ @_Py_NoneStruct, %EVP_hash.exit24 ], [ @_Py_NoneStruct, %EVP_hash.exit24.thread ]
  call void @llvm.lifetime.end.p0(i64 80, ptr nonnull %3) #9
  ret ptr %.0
}